target datalayout = "e-m:e-p270:32:32-p271:32:32-p272:64:64-i64:64-i128:128-f80:128-n8:16:32:64-S128"
target triple = "x86_64-pc-linux-gnu"

; Function Attrs: mustprogress uwtable
define i32 @zmq_timers_destroy(ptr noundef %0) #1 {
  %2 = alloca i32, align 4
  %3 = alloca ptr, align 8
  %4 = alloca ptr, align 8
  %5 = alloca i32, align 4
  store ptr %0, ptr %3, align 8, !tbaa !110
  call void @llvm.lifetime.start.p0(i64 8, ptr %4) #20
  %6 = load ptr, ptr %3, align 8, !tbaa !110
  %7 = load ptr, ptr %6, align 8, !tbaa !12
  store ptr %7, ptr %4, align 8, !tbaa !12
  %8 = load ptr, ptr %4, align 8, !tbaa !12
  %9 = icmp ne ptr %8, null
  br i1 %9, label %10, label %13

10:                                               ; preds = %1
  %11 = load ptr, ptr %4, align 8, !tbaa !12
  %12 = call noundef zeroext i1 @_ZNK3zmq8timers_t9check_tagEv(ptr noundef nonnull align 8 dereferenceable(120) %11)
  br i1 %12, label %15, label %13

13:                                               ; preds = %10, %1
  %14 = call ptr @__errno_location() #19
  store i32 14, ptr %14, align 4, !tbaa !8
  store i32 -1, ptr %2, align 4
  store i32 1, ptr %5, align 4
  br label %21

15:                                               ; preds = %10
  %16 = load ptr, ptr %4, align 8, !tbaa !12
  %17 = icmp eq ptr %16, null
  br i1 %17, label %19, label %18

18:                                               ; preds = %15
  call void @_ZN3zmq8timers_tD1Ev(ptr noundef nonnull align 8 dereferenceable(120) %16) #20
  call void @_ZdlPv(ptr noundef %16) #22
  br label %19

19:                                               ; preds = %18, %15
  %20 = load ptr, ptr %3, align 8, !tbaa !110
  store ptr null, ptr %20, align 8, !tbaa !12
  store i32 0, ptr %2, align 4
  store i32 1, ptr %5, align 4
  br label %21

21:                                               ; preds = %19, %13
  call void @llvm.lifetime.end.p0(i64 8, ptr %4) #20
  %22 = load i32, ptr %2, align 4
  ret i32 %22
}