; Function Attrs: mustprogress uwtable
define range(i32 -1, 1) i32 @zmq_timers_destroy(ptr noundef captures(none) %0) local_unnamed_addr #1 {
  %2 = load ptr, ptr %0, align 8, !tbaa !71
  %.not = icmp eq ptr %2, null
  br i1 %.not, label %5, label %3

3:                                                ; preds = %1
  %4 = tail call noundef zeroext i1 @_ZNK3zmq8timers_t9check_tagEv(ptr noundef nonnull align 8 dereferenceable(120) %2)
  br i1 %4, label %7, label %5

5:                                                ; preds = %3, %1
  %6 = tail call ptr @__errno_location() #20
  store i32 14, ptr %6, align 4, !tbaa !3
  br label %8

7:                                                ; preds = %3
  tail call void @_ZN3zmq8timers_tD1Ev(ptr noundef nonnull align 8 dereferenceable(120) %2) #22
  tail call void @_ZdlPv(ptr noundef nonnull %2) #23
  store ptr null, ptr %0, align 8, !tbaa !71
  br label %8

8:                                                ; preds = %7, %5
  %.0 = phi i32 [ 0, %7 ], [ -1, %5 ]
  ret i32 %.0
}